target datalayout = "e-m:e-p270:32:32-p271:32:32-p272:64:64-i64:64-i128:128-f80:128-n8:16:32:64-S128"
target triple = "x86_64-pc-linux-gnu"

%struct.H5C_class_t = type { i32, ptr, i32, i32, ptr, ptr, ptr, ptr, ptr, ptr, ptr, ptr, ptr, ptr }
%struct.H5C_cache_entry_t = type { ptr, i64, i64, ptr, i8, ptr, i8, i8, i8, i8, i32, i8, i8, i8, i8, i8, i32, ptr, i32, i32, i32, i32, i32, i8, i8, ptr, ptr, ptr, ptr, ptr, ptr, i8, i32, i8, i64, ptr, i64, i64, i32, i8, i32, i32, i8, ptr, ptr, ptr }
%struct.H5HF_hdr_t = type { %struct.H5C_cache_entry_t, i32, i32, i8, i8, i8, i8, %struct.H5HF_dtable_t, i64, i64, i32, i64, i64, %struct.H5O_pline_t, i64, i32, i64, i64, i64, i64, i64, i64, i64, i64, i64, i64, i64, i32, ptr, i64, i8, i8, i8, ptr, i32, ptr, %struct.H5HF_block_iter_t, ptr, i64, i8, i8, i64, i8, i8, i8, i8 }
%struct.H5HF_dtable_t = type { %struct.H5HF_dtable_cparam_t, i64, i32, i32, i32, i32, i32, i32, i32, i64, ptr, ptr, ptr, ptr }
%struct.H5HF_dtable_cparam_t = type { i32, i64, i64, i32, i32 }
%struct.H5O_pline_t = type { %struct.H5O_shared_t, i32, i64, i64, ptr }
%struct.H5O_shared_t = type { i32, ptr, i32, %union.anon }
%union.anon = type { %struct.H5O_mesg_loc_t }
%struct.H5O_mesg_loc_t = type { i32, i64 }
%struct.H5HF_block_iter_t = type { i8, ptr }
%struct.H5HF_indirect_t = type { %struct.H5C_cache_entry_t, i64, ptr, ptr, ptr, i32, i64, i64, i32, i32, i32, i32, ptr, i8, i64, ptr, ptr }
%struct.H5HF_indirect_filt_ent_t = type { i64, i32 }
%struct.H5HF_dblock_cache_ud_t = type { %struct.H5HF_parent_t, ptr, i64, i64, i32, ptr, i32 }
%struct.H5HF_parent_t = type { ptr, ptr, i32 }

@.str.1 = private unnamed_addr constant [104 x i8] c"generated/home/dtcxzyw/WorkSpace/Projects/compilers/llvm-opt-benchmark/bench/hdf5/hdf5/src/H5HFdblock.c\00", align 1
@H5E_HEAP_g = external global i64, align 8
@H5AC_FHEAP_DBLOCK = external constant [1 x %struct.H5C_class_t], align 16
@__func__.H5HF__man_dblock_protect = private unnamed_addr constant [25 x i8] c"H5HF__man_dblock_protect\00", align 1
@H5E_CANTPROTECT_g = external global i64, align 8
@.str.24 = private unnamed_addr constant [44 x i8] c"unable to protect fractal heap direct block\00", align 1

; Function Attrs: nounwind uwtable
define ptr @H5HF__man_dblock_protect(ptr noundef %0, i64 noundef %1, i64 noundef %2, ptr noundef %3, i32 noundef %4, i32 noundef %5) #0 {
  %7 = alloca ptr, align 8
  %8 = alloca i64, align 8
  %9 = alloca i64, align 8
  %10 = alloca ptr, align 8
  %11 = alloca i32, align 4
  %12 = alloca i32, align 4
  %13 = alloca ptr, align 8
  %14 = alloca %struct.H5HF_dblock_cache_ud_t, align 8
  %15 = alloca ptr, align 8
  %16 = alloca i8, align 1
  store ptr %0, ptr %7, align 8
  store i64 %1, ptr %8, align 8
  store i64 %2, ptr %9, align 8
  store ptr %3, ptr %10, align 8
  store i32 %4, ptr %11, align 4
  store i32 %5, ptr %12, align 4
  store ptr null, ptr %15, align 8
  store i8 0, ptr %16, align 1
  %17 = load ptr, ptr %7, align 8
  %18 = getelementptr inbounds %struct.H5HF_dblock_cache_ud_t, ptr %14, i32 0, i32 0
  %19 = getelementptr inbounds %struct.H5HF_parent_t, ptr %18, i32 0, i32 0
  store ptr %17, ptr %19, align 8
  %20 = load ptr, ptr %10, align 8
  %21 = getelementptr inbounds %struct.H5HF_dblock_cache_ud_t, ptr %14, i32 0, i32 0
  %22 = getelementptr inbounds %struct.H5HF_parent_t, ptr %21, i32 0, i32 1
  store ptr %20, ptr %22, align 8
  %23 = load i32, ptr %11, align 4
  %24 = getelementptr inbounds %struct.H5HF_dblock_cache_ud_t, ptr %14, i32 0, i32 0
  %25 = getelementptr inbounds %struct.H5HF_parent_t, ptr %24, i32 0, i32 2
  store i32 %23, ptr %25, align 8
  %26 = load ptr, ptr %7, align 8
  %27 = getelementptr inbounds %struct.H5HF_hdr_t, ptr %26, i32 0, i32 28
  %28 = load ptr, ptr %27, align 8
  %29 = getelementptr inbounds %struct.H5HF_dblock_cache_ud_t, ptr %14, i32 0, i32 1
  store ptr %28, ptr %29, align 8
  %30 = load i64, ptr %9, align 8
  %31 = getelementptr inbounds %struct.H5HF_dblock_cache_ud_t, ptr %14, i32 0, i32 3
  store i64 %30, ptr %31, align 8
  %32 = load ptr, ptr %7, align 8
  %33 = getelementptr inbounds %struct.H5HF_hdr_t, ptr %32, i32 0, i32 2
  %34 = load i32, ptr %33, align 4
  %35 = icmp ugt i32 %34, 0
  br i1 %35, label %36, label %68

36:                                               ; preds = %6
  %37 = load ptr, ptr %10, align 8
  %38 = icmp eq ptr %37, null
  br i1 %38, label %39, label %48

39:                                               ; preds = %36
  %40 = load ptr, ptr %7, align 8
  %41 = getelementptr inbounds %struct.H5HF_hdr_t, ptr %40, i32 0, i32 14
  %42 = load i64, ptr %41, align 8
  %43 = getelementptr inbounds %struct.H5HF_dblock_cache_ud_t, ptr %14, i32 0, i32 2
  store i64 %42, ptr %43, align 8
  %44 = load ptr, ptr %7, align 8
  %45 = getelementptr inbounds %struct.H5HF_hdr_t, ptr %44, i32 0, i32 15
  %46 = load i32, ptr %45, align 8
  %47 = getelementptr inbounds %struct.H5HF_dblock_cache_ud_t, ptr %14, i32 0, i32 4
  store i32 %46, ptr %47, align 8
  br label %67

48:                                               ; preds = %36
  %49 = load ptr, ptr %10, align 8
  %50 = getelementptr inbounds %struct.H5HF_indirect_t, ptr %49, i32 0, i32 16
  %51 = load ptr, ptr %50, align 8
  %52 = load i32, ptr %11, align 4
  %53 = zext i32 %52 to i64
  %54 = getelementptr inbounds %struct.H5HF_indirect_filt_ent_t, ptr %51, i64 %53
  %55 = getelementptr inbounds %struct.H5HF_indirect_filt_ent_t, ptr %54, i32 0, i32 0
  %56 = load i64, ptr %55, align 8
  %57 = getelementptr inbounds %struct.H5HF_dblock_cache_ud_t, ptr %14, i32 0, i32 2
  store i64 %56, ptr %57, align 8
  %58 = load ptr, ptr %10, align 8
  %59 = getelementptr inbounds %struct.H5HF_indirect_t, ptr %58, i32 0, i32 16
  %60 = load ptr, ptr %59, align 8
  %61 = load i32, ptr %11, align 4
  %62 = zext i32 %61 to i64
  %63 = getelementptr inbounds %struct.H5HF_indirect_filt_ent_t, ptr %60, i64 %62
  %64 = getelementptr inbounds %struct.H5HF_indirect_filt_ent_t, ptr %63, i32 0, i32 1
  %65 = load i32, ptr %64, align 8
  %66 = getelementptr inbounds %struct.H5HF_dblock_cache_ud_t, ptr %14, i32 0, i32 4
  store i32 %65, ptr %66, align 8
  br label %67

67:                                               ; preds = %48, %39
  br label %72

68:                                               ; preds = %6
  %69 = load i64, ptr %9, align 8
  %70 = getelementptr inbounds %struct.H5HF_dblock_cache_ud_t, ptr %14, i32 0, i32 2
  store i64 %69, ptr %70, align 8
  %71 = getelementptr inbounds %struct.H5HF_dblock_cache_ud_t, ptr %14, i32 0, i32 4
  store i32 0, ptr %71, align 8
  br label %72

72:                                               ; preds = %68, %67
  %73 = getelementptr inbounds %struct.H5HF_dblock_cache_ud_t, ptr %14, i32 0, i32 6
  store i32 0, ptr %73, align 8
  %74 = getelementptr inbounds %struct.H5HF_dblock_cache_ud_t, ptr %14, i32 0, i32 5
  store ptr null, ptr %74, align 8
  %75 = load ptr, ptr %7, align 8
  %76 = getelementptr inbounds %struct.H5HF_hdr_t, ptr %75, i32 0, i32 28
  %77 = load ptr, ptr %76, align 8
  %78 = load i64, ptr %8, align 8
  %79 = load i32, ptr %12, align 4
  %80 = call ptr @H5AC_protect(ptr noundef %77, ptr noundef @H5AC_FHEAP_DBLOCK, i64 noundef %78, ptr noundef %14, i32 noundef %79)
  store ptr %80, ptr %13, align 8
  %81 = icmp eq ptr null, %80
  br i1 %81, label %82, label %97

82:                                               ; preds = %72
  br label %83

83:                                               ; preds = %82
  br label %84

84:                                               ; preds = %83
  br label %85

85:                                               ; preds = %84
  %86 = load i64, ptr @H5E_HEAP_g, align 8
  %87 = load i64, ptr @H5E_CANTPROTECT_g, align 8
  %88 = call i32 (ptr, ptr, i32, i64, i64, ptr, ...) @H5E_printf_stack(ptr noundef @.str.1, ptr noundef @__func__.H5HF__man_dblock_protect, i32 noundef 476, i64 noundef %86, i64 noundef %87, ptr noundef @.str.24)
  br label %89

89:                                               ; preds = %85
  store i8 1, ptr %16, align 1
  %90 = load i8, ptr %16, align 1
  %91 = trunc i8 %90 to i1
  %92 = zext i1 %91 to i8
  store i8 %92, ptr %16, align 1
  br label %93

93:                                               ; preds = %89
  br label %94

94:                                               ; preds = %93
  store ptr null, ptr %15, align 8
  br label %99

95:                                               ; No predecessors!
  br label %96

96:                                               ; preds = %95
  br label %97

97:                                               ; preds = %96, %72
  %98 = load ptr, ptr %13, align 8
  store ptr %98, ptr %15, align 8
  br label %99

99:                                               ; preds = %97, %94
  %100 = load ptr, ptr %15, align 8
  ret ptr %100
}