; Function Attrs: nounwind uwtable
define ptr @H5HF__man_dblock_protect(ptr noundef %0, i64 noundef %1, i64 noundef %2, ptr noundef %3, i32 noundef %4, i32 noundef %5) local_unnamed_addr #0 {
  %7 = alloca %struct.H5HF_dblock_cache_ud_t, align 8
  store ptr %0, ptr %7, align 8
  %8 = getelementptr inbounds i8, ptr %7, i64 8
  store ptr %3, ptr %8, align 8
  %9 = getelementptr inbounds i8, ptr %7, i64 16
  store i32 %4, ptr %9, align 8
  %10 = getelementptr inbounds i8, ptr %0, i64 600
  %11 = load ptr, ptr %10, align 8
  %12 = getelementptr inbounds i8, ptr %7, i64 24
  store ptr %11, ptr %12, align 8
  %13 = getelementptr inbounds i8, ptr %7, i64 40
  store i64 %2, ptr %13, align 8
  %14 = getelementptr inbounds i8, ptr %0, i64 252
  %15 = load i32, ptr %14, align 4
  %.not = icmp eq i32 %15, 0
  br i1 %.not, label %33, label %16

16:                                               ; preds = %6
  %17 = icmp eq ptr %3, null
  br i1 %17, label %18, label %24

18:                                               ; preds = %16
  %19 = getelementptr inbounds i8, ptr %0, i64 488
  %20 = load i64, ptr %19, align 8
  %21 = getelementptr inbounds i8, ptr %7, i64 32
  store i64 %20, ptr %21, align 8
  %22 = getelementptr inbounds i8, ptr %0, i64 496
  %23 = load i32, ptr %22, align 8
  br label %35

24:                                               ; preds = %16
  %25 = getelementptr inbounds i8, ptr %3, i64 352
  %26 = load ptr, ptr %25, align 8
  %27 = zext i32 %4 to i64
  %28 = getelementptr inbounds %struct.H5HF_indirect_filt_ent_t, ptr %26, i64 %27
  %29 = load i64, ptr %28, align 8
  %30 = getelementptr inbounds i8, ptr %7, i64 32
  store i64 %29, ptr %30, align 8
  %31 = getelementptr inbounds %struct.H5HF_indirect_filt_ent_t, ptr %26, i64 %27, i32 1
  %32 = load i32, ptr %31, align 8
  br label %35

33:                                               ; preds = %6
  %34 = getelementptr inbounds i8, ptr %7, i64 32
  store i64 %2, ptr %34, align 8
  br label %35

35:                                               ; preds = %18, %24, %33
  %.sink = phi i32 [ %23, %18 ], [ %32, %24 ], [ 0, %33 ]
  %36 = getelementptr inbounds i8, ptr %7, i64 48
  store i32 %.sink, ptr %36, align 8
  %37 = getelementptr inbounds i8, ptr %7, i64 64
  store i32 0, ptr %37, align 8
  %38 = getelementptr inbounds i8, ptr %7, i64 56
  store ptr null, ptr %38, align 8
  %39 = call ptr @H5AC_protect(ptr noundef %11, ptr noundef nonnull @H5AC_FHEAP_DBLOCK, i64 noundef %1, ptr noundef nonnull %7, i32 noundef %5) #4
  %40 = icmp eq ptr %39, null
  br i1 %40, label %41, label %45

41:                                               ; preds = %35
  %42 = load i64, ptr @H5E_HEAP_g, align 8
  %43 = load i64, ptr @H5E_CANTPROTECT_g, align 8
  %44 = call i32 (ptr, ptr, i32, i64, i64, ptr, ...) @H5E_printf_stack(ptr noundef nonnull @.str.1, ptr noundef nonnull @__func__.H5HF__man_dblock_protect, i32 noundef 476, i64 noundef %42, i64 noundef %43, ptr noundef nonnull @.str.24) #4
  br label %45

45:                                               ; preds = %35, %41
  ret ptr %39
}